target datalayout = "e-m:e-p270:32:32-p271:32:32-p272:64:64-i64:64-i128:128-f80:128-n8:16:32:64-S128"
target triple = "x86_64-pc-linux-gnu"

%struct.Curl_llist_element = type { ptr, ptr, ptr }
%struct.curltime = type { i64, i32 }
%struct.ssl_primary_config = type { ptr, ptr, ptr, ptr, ptr, ptr, ptr, ptr, ptr, ptr, ptr, ptr, i8, i32, i8, i8 }
%struct.dynbuf = type { ptr, i64, i64, i64 }
%struct.Curl_llist = type { ptr, ptr, ptr, i64 }
%struct.connectdata = type { %struct.Curl_llist_element, ptr, ptr, i64, ptr, ptr, %struct.hostname, ptr, ptr, %struct.hostname, %struct.proxy_info, %struct.proxy_info, [46 x i8], ptr, ptr, ptr, ptr, ptr, %struct.curltime, %struct.curltime, %struct.curltime, [2 x i32], [2 x ptr], [2 x ptr], [2 x ptr], %struct.ssl_primary_config, %struct.ssl_primary_config, %struct.ConnectBits, ptr, ptr, %struct.curltime, i32, i32, %struct.Curl_llist, ptr, ptr, i32, i32, %struct.ntlmdata, %struct.ntlmdata, %union.anon.1, ptr, ptr, i16, i32, i32, i32, i32, i32, i16, i16, i8, i8, i8, i8, i8, i8, i8 }
%struct.hostname = type { ptr, ptr, ptr, ptr }
%struct.proxy_info = type { %struct.hostname, i32, i8, ptr, ptr }
%struct.ConnectBits = type { i32 }
%struct.ntlmdata = type { i32, [8 x i8], i32, ptr }
%union.anon.1 = type { %struct.ftp_conn }
%struct.ftp_conn = type { %struct.pingpong, ptr, ptr, ptr, ptr, ptr, ptr, ptr, i8, i64, ptr, i64, i32, i32, i32, i32, i32, i16, i8, i8, i8, i8, i8 }
%struct.pingpong = type { i64, i8, ptr, i64, i64, %struct.curltime, i64, %struct.dynbuf, %struct.dynbuf, i64, i64, ptr, ptr }
%struct.smb_conn = type { i32, ptr, ptr, ptr, [8 x i8], i32, i16, ptr, i64, i64, i64, i64 }

@Curl_cfree = external global ptr, align 8

; Function Attrs: nounwind uwtable
define internal i32 @smb_disconnect(ptr noundef %0, ptr noundef %1, i1 noundef zeroext %2) #0 {
  %4 = alloca ptr, align 8
  %5 = alloca ptr, align 8
  %6 = alloca i8, align 1
  %7 = alloca ptr, align 8
  store ptr %0, ptr %4, align 8
  store ptr %1, ptr %5, align 8
  %8 = zext i1 %2 to i8
  store i8 %8, ptr %6, align 1
  %9 = load ptr, ptr %5, align 8
  %10 = getelementptr inbounds %struct.connectdata, ptr %9, i32 0, i32 40
  store ptr %10, ptr %7, align 8
  br label %11

11:                                               ; preds = %3
  %12 = load ptr, ptr @Curl_cfree, align 8
  %13 = load ptr, ptr %7, align 8
  %14 = getelementptr inbounds %struct.smb_conn, ptr %13, i32 0, i32 3
  %15 = load ptr, ptr %14, align 8
  call void %12(ptr noundef %15)
  %16 = load ptr, ptr %7, align 8
  %17 = getelementptr inbounds %struct.smb_conn, ptr %16, i32 0, i32 3
  store ptr null, ptr %17, align 8
  br label %18

18:                                               ; preds = %11
  br label %19

19:                                               ; preds = %18
  %20 = load ptr, ptr @Curl_cfree, align 8
  %21 = load ptr, ptr %7, align 8
  %22 = getelementptr inbounds %struct.smb_conn, ptr %21, i32 0, i32 2
  %23 = load ptr, ptr %22, align 8
  call void %20(ptr noundef %23)
  %24 = load ptr, ptr %7, align 8
  %25 = getelementptr inbounds %struct.smb_conn, ptr %24, i32 0, i32 2
  store ptr null, ptr %25, align 8
  br label %26

26:                                               ; preds = %19
  br label %27

27:                                               ; preds = %26
  %28 = load ptr, ptr @Curl_cfree, align 8
  %29 = load ptr, ptr %7, align 8
  %30 = getelementptr inbounds %struct.smb_conn, ptr %29, i32 0, i32 7
  %31 = load ptr, ptr %30, align 8
  call void %28(ptr noundef %31)
  %32 = load ptr, ptr %7, align 8
  %33 = getelementptr inbounds %struct.smb_conn, ptr %32, i32 0, i32 7
  store ptr null, ptr %33, align 8
  br label %34

34:                                               ; preds = %27
  ret i32 0
}