; Function Attrs: nounwind uwtable
define internal noundef i32 @smb_disconnect(ptr readnone captures(none) %0, ptr noundef captures(none) %1, i1 zeroext %2) #0 {
  %4 = load ptr, ptr @Curl_cfree, align 8
  %5 = getelementptr inbounds nuw i8, ptr %1, i64 848
  %6 = load ptr, ptr %5, align 8
  tail call void %4(ptr noundef %6) #12
  store ptr null, ptr %5, align 8
  %7 = load ptr, ptr @Curl_cfree, align 8
  %8 = getelementptr inbounds nuw i8, ptr %1, i64 840
  %9 = load ptr, ptr %8, align 8
  tail call void %7(ptr noundef %9) #12
  store ptr null, ptr %8, align 8
  %10 = load ptr, ptr @Curl_cfree, align 8
  %11 = getelementptr inbounds nuw i8, ptr %1, i64 872
  %12 = load ptr, ptr %11, align 8
  tail call void %10(ptr noundef %12) #12
  store ptr null, ptr %11, align 8
  ret i32 0
}